; ModuleID = 'source-C-CXX/38/993.c'
source_filename = "source-C-CXX/38/993.c"
target datalayout = "e-m:e-p270:32:32-p271:32:32-p272:64:64-i64:64-f80:128-n8:16:32:64-S128"
target triple = "x86_64-pc-linux-gnu"

%struct.stus = type { [25 x i8], i32, i32, i8, i8, i32, i32 }

@.str = private unnamed_addr constant [3 x i8] c"%d\00", align 1
@.str.1 = private unnamed_addr constant [18 x i8] c"%s %d %d %c %c %d\00", align 1
@.str.3 = private unnamed_addr constant [6 x i8] c"%d\0A%d\00", align 1

; Function Attrs: nofree nounwind sspstrong uwtable
define dso_local void @main() local_unnamed_addr #0 {
  %1 = alloca i32, align 4
  %2 = alloca [25 x i8], align 16
  %3 = alloca [101 x %struct.stus], align 16
  %4 = bitcast i32* %1 to i8*
  call void @llvm.lifetime.start.p0i8(i64 4, i8* nonnull %4) #6
  %5 = getelementptr inbounds [25 x i8], [25 x i8]* %2, i64 0, i64 0
  call void @llvm.lifetime.start.p0i8(i64 25, i8* nonnull %5) #6
  call void @llvm.memset.p0i8.i64(i8* noundef nonnull align 16 dereferenceable(25) %5, i8 0, i64 25, i1 false)
  %6 = getelementptr inbounds [101 x %struct.stus], [101 x %struct.stus]* %3, i64 0, i64 0, i32 0, i64 0
  call void @llvm.lifetime.start.p0i8(i64 4848, i8* nonnull %6) #6
  call void @llvm.memset.p0i8.i64(i8* noundef nonnull align 16 dereferenceable(4848) %6, i8 0, i64 4848, i1 false)
  %7 = call i32 (i8*, ...) @__isoc99_scanf(i8* getelementptr inbounds ([3 x i8], [3 x i8]* @.str, i64 0, i64 0), i32* nonnull %1)
  %8 = load i32, i32* %1, align 4, !tbaa !5
  %9 = icmp sgt i32 %8, 0
  br i1 %9, label %12, label %10

10:                                               ; preds = %0
  %11 = call i8* @strcpy(i8* noundef nonnull %5, i8* noundef nonnull %6) #6
  br label %91

12:                                               ; preds = %0, %63
  %13 = phi i64 [ %67, %63 ], [ 0, %0 ]
  %14 = phi i32 [ %66, %63 ], [ 0, %0 ]
  %15 = getelementptr inbounds [101 x %struct.stus], [101 x %struct.stus]* %3, i64 0, i64 %13, i32 0, i64 0
  %16 = getelementptr inbounds [101 x %struct.stus], [101 x %struct.stus]* %3, i64 0, i64 %13, i32 1
  %17 = getelementptr inbounds [101 x %struct.stus], [101 x %struct.stus]* %3, i64 0, i64 %13, i32 2
  %18 = getelementptr inbounds [101 x %struct.stus], [101 x %struct.stus]* %3, i64 0, i64 %13, i32 3
  %19 = getelementptr inbounds [101 x %struct.stus], [101 x %struct.stus]* %3, i64 0, i64 %13, i32 4
  %20 = getelementptr inbounds [101 x %struct.stus], [101 x %struct.stus]* %3, i64 0, i64 %13, i32 5
  %21 = call i32 (i8*, ...) @__isoc99_scanf(i8* getelementptr inbounds ([18 x i8], [18 x i8]* @.str.1, i64 0, i64 0), i8* nonnull %15, i32* nonnull %16, i32* nonnull %17, i8* nonnull %18, i8* nonnull %19, i32* nonnull %20)
  %22 = load i32, i32* %16, align 4, !tbaa !9
  %23 = icmp sgt i32 %22, 80
  br i1 %23, label %24, label %53

24:                                               ; preds = %12
  %25 = load i32, i32* %20, align 8, !tbaa !11
  %26 = icmp sgt i32 %25, 0
  br i1 %26, label %27, label %31

27:                                               ; preds = %24
  %28 = getelementptr inbounds [101 x %struct.stus], [101 x %struct.stus]* %3, i64 0, i64 %13, i32 6
  %29 = load i32, i32* %28, align 4, !tbaa !12
  %30 = add nsw i32 %29, 8000
  store i32 %30, i32* %28, align 4, !tbaa !12
  br label %31

31:                                               ; preds = %27, %24
  %32 = icmp sgt i32 %22, 85
  br i1 %32, label %33, label %53

33:                                               ; preds = %31
  %34 = load i32, i32* %17, align 16, !tbaa !13
  %35 = icmp sgt i32 %34, 80
  br i1 %35, label %36, label %40

36:                                               ; preds = %33
  %37 = getelementptr inbounds [101 x %struct.stus], [101 x %struct.stus]* %3, i64 0, i64 %13, i32 6
  %38 = load i32, i32* %37, align 4, !tbaa !12
  %39 = add nsw i32 %38, 4000
  store i32 %39, i32* %37, align 4, !tbaa !12
  br label %40

40:                                               ; preds = %36, %33
  %41 = icmp sgt i32 %22, 90
  br i1 %41, label %42, label %46

42:                                               ; preds = %40
  %43 = getelementptr inbounds [101 x %struct.stus], [101 x %struct.stus]* %3, i64 0, i64 %13, i32 6
  %44 = load i32, i32* %43, align 4, !tbaa !12
  %45 = add nsw i32 %44, 2000
  store i32 %45, i32* %43, align 4, !tbaa !12
  br label %46

46:                                               ; preds = %42, %40
  %47 = load i8, i8* %19, align 1, !tbaa !14
  %48 = icmp eq i8 %47, 89
  br i1 %48, label %49, label %53

49:                                               ; preds = %46
  %50 = getelementptr inbounds [101 x %struct.stus], [101 x %struct.stus]* %3, i64 0, i64 %13, i32 6
  %51 = load i32, i32* %50, align 4, !tbaa !12
  %52 = add nsw i32 %51, 1000
  store i32 %52, i32* %50, align 4, !tbaa !12
  br label %53

53:                                               ; preds = %12, %31, %46, %49
  %54 = load i32, i32* %17, align 16, !tbaa !13
  %55 = icmp sgt i32 %54, 80
  br i1 %55, label %56, label %63

56:                                               ; preds = %53
  %57 = load i8, i8* %18, align 4, !tbaa !15
  %58 = icmp eq i8 %57, 89
  br i1 %58, label %59, label %63

59:                                               ; preds = %56
  %60 = getelementptr inbounds [101 x %struct.stus], [101 x %struct.stus]* %3, i64 0, i64 %13, i32 6
  %61 = load i32, i32* %60, align 4, !tbaa !12
  %62 = add nsw i32 %61, 850
  store i32 %62, i32* %60, align 4, !tbaa !12
  br label %63

63:                                               ; preds = %59, %56, %53
  %64 = getelementptr inbounds [101 x %struct.stus], [101 x %struct.stus]* %3, i64 0, i64 %13, i32 6
  %65 = load i32, i32* %64, align 4, !tbaa !12
  %66 = add nsw i32 %65, %14
  %67 = add nuw nsw i64 %13, 1
  %68 = load i32, i32* %1, align 4, !tbaa !5
  %69 = sext i32 %68 to i64
  %70 = icmp slt i64 %67, %69
  br i1 %70, label %12, label %71, !llvm.loop !16

71:                                               ; preds = %63
  %72 = getelementptr inbounds [101 x %struct.stus], [101 x %struct.stus]* %3, i64 0, i64 0, i32 6
  %73 = load i32, i32* %72, align 4, !tbaa !12
  %74 = call i8* @strcpy(i8* noundef nonnull %5, i8* noundef nonnull %6) #6
  %75 = icmp sgt i32 %68, 1
  br i1 %75, label %76, label %91

76:                                               ; preds = %71
  %77 = zext i32 %68 to i64
  br label %78

78:                                               ; preds = %76, %87
  %79 = phi i64 [ 1, %76 ], [ %89, %87 ]
  %80 = phi i32 [ %73, %76 ], [ %88, %87 ]
  %81 = getelementptr inbounds [101 x %struct.stus], [101 x %struct.stus]* %3, i64 0, i64 %79, i32 6
  %82 = load i32, i32* %81, align 4, !tbaa !12
  %83 = icmp sgt i32 %82, %80
  br i1 %83, label %84, label %87

84:                                               ; preds = %78
  %85 = getelementptr inbounds [101 x %struct.stus], [101 x %struct.stus]* %3, i64 0, i64 %79, i32 0, i64 0
  %86 = call i8* @strcpy(i8* noundef nonnull %5, i8* noundef nonnull %85) #6
  br label %87

87:                                               ; preds = %78, %84
  %88 = phi i32 [ %82, %84 ], [ %80, %78 ]
  %89 = add nuw nsw i64 %79, 1
  %90 = icmp eq i64 %89, %77
  br i1 %90, label %91, label %78, !llvm.loop !18

91:                                               ; preds = %87, %10, %71
  %92 = phi i32 [ %66, %71 ], [ 0, %10 ], [ %66, %87 ]
  %93 = phi i32 [ %73, %71 ], [ 0, %10 ], [ %88, %87 ]
  %94 = call i32 @puts(i8* nonnull %5)
  %95 = call i32 (i8*, ...) @printf(i8* nonnull dereferenceable(1) getelementptr inbounds ([6 x i8], [6 x i8]* @.str.3, i64 0, i64 0), i32 %93, i32 %92)
  call void @llvm.lifetime.end.p0i8(i64 4848, i8* nonnull %6) #6
  call void @llvm.lifetime.end.p0i8(i64 25, i8* nonnull %5) #6
  call void @llvm.lifetime.end.p0i8(i64 4, i8* nonnull %4) #6
  ret void
}

; Function Attrs: argmemonly mustprogress nofree nosync nounwind willreturn
declare void @llvm.lifetime.start.p0i8(i64 immarg, i8* nocapture) #1

; Function Attrs: argmemonly mustprogress nofree nounwind willreturn writeonly
declare void @llvm.memset.p0i8.i64(i8* nocapture writeonly, i8, i64, i1 immarg) #2

; Function Attrs: nofree nounwind
declare noundef i32 @__isoc99_scanf(i8* nocapture noundef readonly, ...) local_unnamed_addr #3

; Function Attrs: argmemonly mustprogress nofree nounwind willreturn
declare i8* @strcpy(i8* noalias returned writeonly, i8* noalias nocapture readonly) local_unnamed_addr #4

; Function Attrs: nofree nounwind
declare noundef i32 @printf(i8* nocapture noundef readonly, ...) local_unnamed_addr #3

; Function Attrs: argmemonly mustprogress nofree nosync nounwind willreturn
declare void @llvm.lifetime.end.p0i8(i64 immarg, i8* nocapture) #1

; Function Attrs: nofree nounwind
declare noundef i32 @puts(i8* nocapture noundef readonly) local_unnamed_addr #5


!llvm.module.flags = !{!0, !1, !2, !3}
!llvm.ident = !{!4}

!0 = !{i32 1, !"wchar_size", i32 4}
!1 = !{i32 7, !"PIC Level", i32 2}
!2 = !{i32 7, !"PIE Level", i32 2}
!3 = !{i32 7, !"uwtable", i32 1}
!4 = !{!"clang version 13.0.0"}
!5 = !{!6, !6, i64 0}
!6 = !{!"int", !7, i64 0}
!7 = !{!"omnipotent char", !8, i64 0}
!8 = !{!"Simple C/C++ TBAA"}
!9 = !{!10, !6, i64 28}
!10 = !{!"stus", !7, i64 0, !6, i64 28, !6, i64 32, !7, i64 36, !7, i64 37, !6, i64 40, !6, i64 44}
!11 = !{!10, !6, i64 40}
!12 = !{!10, !6, i64 44}
!13 = !{!10, !6, i64 32}
!14 = !{!10, !7, i64 37}
!15 = !{!10, !7, i64 36}
!16 = distinct !{!16, !17}
!17 = !{!"llvm.loop.mustprogress"}
!18 = distinct !{!18, !17}
